; Function Attrs: mustprogress nofree norecurse nosync nounwind willreturn memory(argmem: write) uwtable
define void @proj_area_set_bbox(ptr noundef writeonly captures(none) initializes((0, 1), (8, 40)) %0, double noundef %1, double noundef %2, double noundef %3, double noundef %4) local_unnamed_addr #3 {
  store i8 1, ptr %0, align 8, !tbaa !10
  %6 = getelementptr inbounds nuw i8, ptr %0, i64 8
  store double %1, ptr %6, align 8, !tbaa !16
  %7 = getelementptr inbounds nuw i8, ptr %0, i64 16
  store double %2, ptr %7, align 8, !tbaa !17
  %8 = getelementptr inbounds nuw i8, ptr %0, i64 24
  store double %3, ptr %8, align 8, !tbaa !18
  %9 = getelementptr inbounds nuw i8, ptr %0, i64 32
  store double %4, ptr %9, align 8, !tbaa !19
  ret void
}